; Function Attrs: nounwind uwtable
define internal noundef i32 @_acct_task(ptr noundef %0, ptr noundef readonly captures(address_is_null) %1) #0 {
  %3 = load i32, ptr @oom_kill_type, align 4
  %4 = icmp eq i32 %3, 1
  %5 = icmp ne ptr %1, null
  %or.cond = and i1 %5, %4
  br i1 %or.cond, label %6, label %11

6:                                                ; preds = %2
  %7 = load i32, ptr %1, align 4
  %8 = icmp eq i32 %7, 2
  br i1 %8, label %9, label %11

9:                                                ; preds = %6
  %10 = tail call fastcc i32 @_get_oom_kill_from_file(ptr noundef %0)
  br label %11

11:                                               ; preds = %9, %6, %2
  ret i32 0
}